
sigusr1:     file format elf64-x86-64


Disassembly of section .init:

0000000000001000 <_init>:
    1000:	f3 0f 1e fa          	endbr64 
    1004:	48 83 ec 08          	sub    $0x8,%rsp
    1008:	48 8b 05 d9 2f 00 00 	mov    0x2fd9(%rip),%rax        # 3fe8 <__gmon_start__@Base>
    100f:	48 85 c0             	test   %rax,%rax
    1012:	74 02                	je     1016 <_init+0x16>
    1014:	ff d0                	call   *%rax
    1016:	48 83 c4 08          	add    $0x8,%rsp
    101a:	c3                   	ret    

Disassembly of section .plt:

0000000000001020 <.plt>:
    1020:	ff 35 82 2f 00 00    	push   0x2f82(%rip)        # 3fa8 <_GLOBAL_OFFSET_TABLE_+0x8>
    1026:	f2 ff 25 83 2f 00 00 	bnd jmp *0x2f83(%rip)        # 3fb0 <_GLOBAL_OFFSET_TABLE_+0x10>
    102d:	0f 1f 00             	nopl   (%rax)
    1030:	f3 0f 1e fa          	endbr64 
    1034:	68 00 00 00 00       	push   $0x0
    1039:	f2 e9 e1 ff ff ff    	bnd jmp 1020 <_init+0x20>
    103f:	90                   	nop
    1040:	f3 0f 1e fa          	endbr64 
    1044:	68 01 00 00 00       	push   $0x1
    1049:	f2 e9 d1 ff ff ff    	bnd jmp 1020 <_init+0x20>
    104f:	90                   	nop
    1050:	f3 0f 1e fa          	endbr64 
    1054:	68 02 00 00 00       	push   $0x2
    1059:	f2 e9 c1 ff ff ff    	bnd jmp 1020 <_init+0x20>
    105f:	90                   	nop
    1060:	f3 0f 1e fa          	endbr64 
    1064:	68 03 00 00 00       	push   $0x3
    1069:	f2 e9 b1 ff ff ff    	bnd jmp 1020 <_init+0x20>
    106f:	90                   	nop

Disassembly of section .plt.got:

0000000000001070 <__cxa_finalize@plt>:
    1070:	f3 0f 1e fa          	endbr64 
    1074:	f2 ff 25 7d 2f 00 00 	bnd jmp *0x2f7d(%rip)        # 3ff8 <__cxa_finalize@GLIBC_2.2.5>
    107b:	0f 1f 44 00 00       	nopl   0x0(%rax,%rax,1)

Disassembly of section .plt.sec:

0000000000001080 <sigaction@plt>:
    1080:	f3 0f 1e fa          	endbr64 
    1084:	f2 ff 25 2d 2f 00 00 	bnd jmp *0x2f2d(%rip)        # 3fb8 <sigaction@GLIBC_2.2.5>
    108b:	0f 1f 44 00 00       	nopl   0x0(%rax,%rax,1)

0000000000001090 <getpid@plt>:
    1090:	f3 0f 1e fa          	endbr64 
    1094:	f2 ff 25 25 2f 00 00 	bnd jmp *0x2f25(%rip)        # 3fc0 <getpid@GLIBC_2.2.5>
    109b:	0f 1f 44 00 00       	nopl   0x0(%rax,%rax,1)

00000000000010a0 <__stack_chk_fail@plt>:
    10a0:	f3 0f 1e fa          	endbr64 
    10a4:	f2 ff 25 1d 2f 00 00 	bnd jmp *0x2f1d(%rip)        # 3fc8 <__stack_chk_fail@GLIBC_2.4>
    10ab:	0f 1f 44 00 00       	nopl   0x0(%rax,%rax,1)

00000000000010b0 <printf@plt>:
    10b0:	f3 0f 1e fa          	endbr64 
    10b4:	f2 ff 25 15 2f 00 00 	bnd jmp *0x2f15(%rip)        # 3fd0 <printf@GLIBC_2.2.5>
    10bb:	0f 1f 44 00 00       	nopl   0x0(%rax,%rax,1)

Disassembly of section .text:

00000000000010c0 <_start>:
    10c0:	f3 0f 1e fa          	endbr64 
    10c4:	31 ed                	xor    %ebp,%ebp
    10c6:	49 89 d1             	mov    %rdx,%r9
    10c9:	5e                   	pop    %rsi
    10ca:	48 89 e2             	mov    %rsp,%rdx
    10cd:	48 83 e4 f0          	and    $0xfffffffffffffff0,%rsp
    10d1:	50                   	push   %rax
    10d2:	54                   	push   %rsp
    10d3:	45 31 c0             	xor    %r8d,%r8d
    10d6:	31 c9                	xor    %ecx,%ecx
    10d8:	48 8d 3d e9 00 00 00 	lea    0xe9(%rip),%rdi        # 11c8 <main>
    10df:	ff 15 f3 2e 00 00    	call   *0x2ef3(%rip)        # 3fd8 <__libc_start_main@GLIBC_2.34>
    10e5:	f4                   	hlt    
    10e6:	66 2e 0f 1f 84 00 00 	cs nopw 0x0(%rax,%rax,1)
    10ed:	00 00 00 

00000000000010f0 <deregister_tm_clones>:
    10f0:	48 8d 3d 19 2f 00 00 	lea    0x2f19(%rip),%rdi        # 4010 <__TMC_END__>
    10f7:	48 8d 05 12 2f 00 00 	lea    0x2f12(%rip),%rax        # 4010 <__TMC_END__>
    10fe:	48 39 f8             	cmp    %rdi,%rax
    1101:	74 15                	je     1118 <deregister_tm_clones+0x28>
    1103:	48 8b 05 d6 2e 00 00 	mov    0x2ed6(%rip),%rax        # 3fe0 <_ITM_deregisterTMCloneTable@Base>
    110a:	48 85 c0             	test   %rax,%rax
    110d:	74 09                	je     1118 <deregister_tm_clones+0x28>
    110f:	ff e0                	jmp    *%rax
    1111:	0f 1f 80 00 00 00 00 	nopl   0x0(%rax)
    1118:	c3                   	ret    
    1119:	0f 1f 80 00 00 00 00 	nopl   0x0(%rax)

0000000000001120 <register_tm_clones>:
    1120:	48 8d 3d e9 2e 00 00 	lea    0x2ee9(%rip),%rdi        # 4010 <__TMC_END__>
    1127:	48 8d 35 e2 2e 00 00 	lea    0x2ee2(%rip),%rsi        # 4010 <__TMC_END__>
    112e:	48 29 fe             	sub    %rdi,%rsi
    1131:	48 89 f0             	mov    %rsi,%rax
    1134:	48 c1 ee 3f          	shr    $0x3f,%rsi
    1138:	48 c1 f8 03          	sar    $0x3,%rax
    113c:	48 01 c6             	add    %rax,%rsi
    113f:	48 d1 fe             	sar    %rsi
    1142:	74 14                	je     1158 <register_tm_clones+0x38>
    1144:	48 8b 05 a5 2e 00 00 	mov    0x2ea5(%rip),%rax        # 3ff0 <_ITM_registerTMCloneTable@Base>
    114b:	48 85 c0             	test   %rax,%rax
    114e:	74 08                	je     1158 <register_tm_clones+0x38>
    1150:	ff e0                	jmp    *%rax
    1152:	66 0f 1f 44 00 00    	nopw   0x0(%rax,%rax,1)
    1158:	c3                   	ret    
    1159:	0f 1f 80 00 00 00 00 	nopl   0x0(%rax)

0000000000001160 <__do_global_dtors_aux>:
    1160:	f3 0f 1e fa          	endbr64 
    1164:	80 3d a5 2e 00 00 00 	cmpb   $0x0,0x2ea5(%rip)        # 4010 <__TMC_END__>
    116b:	75 2b                	jne    1198 <__do_global_dtors_aux+0x38>
    116d:	55                   	push   %rbp
    116e:	48 83 3d 82 2e 00 00 	cmpq   $0x0,0x2e82(%rip)        # 3ff8 <__cxa_finalize@GLIBC_2.2.5>
    1175:	00 
    1176:	48 89 e5             	mov    %rsp,%rbp
    1179:	74 0c                	je     1187 <__do_global_dtors_aux+0x27>
    117b:	48 8b 3d 86 2e 00 00 	mov    0x2e86(%rip),%rdi        # 4008 <__dso_handle>
    1182:	e8 e9 fe ff ff       	call   1070 <__cxa_finalize@plt>
    1187:	e8 64 ff ff ff       	call   10f0 <deregister_tm_clones>
    118c:	c6 05 7d 2e 00 00 01 	movb   $0x1,0x2e7d(%rip)        # 4010 <__TMC_END__>
    1193:	5d                   	pop    %rbp
    1194:	c3                   	ret    
    1195:	0f 1f 00             	nopl   (%rax)
    1198:	c3                   	ret    
    1199:	0f 1f 80 00 00 00 00 	nopl   0x0(%rax)

00000000000011a0 <frame_dummy>:
    11a0:	f3 0f 1e fa          	endbr64 
    11a4:	e9 77 ff ff ff       	jmp    1120 <register_tm_clones>

00000000000011a9 <handler>:
    11a9:	f3 0f 1e fa          	endbr64 
    11ad:	55                   	push   %rbp
    11ae:	48 89 e5             	mov    %rsp,%rbp
    11b1:	89 7d fc             	mov    %edi,-0x4(%rbp)
    11b4:	83 7d fc 0a          	cmpl   $0xa,-0x4(%rbp)
    11b8:	75 0b                	jne    11c5 <handler+0x1c>
    11ba:	c7 05 50 2e 00 00 ff 	movl   $0xffffffff,0x2e50(%rip)        # 4014 <sigusr1_flag>
    11c1:	ff ff ff 
    11c4:	90                   	nop
    11c5:	90                   	nop
    11c6:	5d                   	pop    %rbp
    11c7:	c3                   	ret    

00000000000011c8 <main>:
    11c8:	f3 0f 1e fa          	endbr64 
    11cc:	55                   	push   %rbp
    11cd:	48 89 e5             	mov    %rsp,%rbp
    11d0:	48 81 ec b0 00 00 00 	sub    $0xb0,%rsp
    11d7:	64 48 8b 04 25 28 00 	mov    %fs:0x28,%rax
    11de:	00 00 
    11e0:	48 89 45 f8          	mov    %rax,-0x8(%rbp)
    11e4:	31 c0                	xor    %eax,%eax
    11e6:	e8 a5 fe ff ff       	call   1090 <getpid@plt>
    11eb:	89 85 5c ff ff ff    	mov    %eax,-0xa4(%rbp)
    11f1:	8b 85 5c ff ff ff    	mov    -0xa4(%rbp),%eax
    11f7:	89 c6                	mov    %eax,%esi
    11f9:	48 8d 05 04 0e 00 00 	lea    0xe04(%rip),%rax        # 2004 <_IO_stdin_used+0x4>
    1200:	48 89 c7             	mov    %rax,%rdi
    1203:	b8 00 00 00 00       	mov    $0x0,%eax
    1208:	e8 a3 fe ff ff       	call   10b0 <printf@plt>
    120d:	48 8d 95 60 ff ff ff 	lea    -0xa0(%rbp),%rdx
    1214:	b8 00 00 00 00       	mov    $0x0,%eax
    1219:	b9 13 00 00 00       	mov    $0x13,%ecx
    121e:	48 89 d7             	mov    %rdx,%rdi
    1221:	f3 48 ab             	rep stos %rax,%es:(%rdi)
    1224:	48 8d 05 7e ff ff ff 	lea    -0x82(%rip),%rax        # 11a9 <handler>
    122b:	48 89 85 60 ff ff ff 	mov    %rax,-0xa0(%rbp)
    1232:	48 8d 85 60 ff ff ff 	lea    -0xa0(%rbp),%rax
    1239:	ba 00 00 00 00       	mov    $0x0,%edx
    123e:	48 89 c6             	mov    %rax,%rsi
    1241:	bf 0a 00 00 00       	mov    $0xa,%edi
    1246:	e8 35 fe ff ff       	call   1080 <sigaction@plt>
    124b:	8b 05 c3 2d 00 00    	mov    0x2dc3(%rip),%eax        # 4014 <sigusr1_flag>
    1251:	83 f8 ff             	cmp    $0xffffffff,%eax
    1254:	74 02                	je     1258 <main+0x90>
    1256:	eb da                	jmp    1232 <main+0x6a>
    1258:	90                   	nop
    1259:	b8 00 00 00 00       	mov    $0x0,%eax
    125e:	48 8b 55 f8          	mov    -0x8(%rbp),%rdx
    1262:	64 48 2b 14 25 28 00 	sub    %fs:0x28,%rdx
    1269:	00 00 
    126b:	74 05                	je     1272 <main+0xaa>
    126d:	e8 2e fe ff ff       	call   10a0 <__stack_chk_fail@plt>
    1272:	c9                   	leave  
    1273:	c3                   	ret    

Disassembly of section .fini:

0000000000001274 <_fini>:
    1274:	f3 0f 1e fa          	endbr64 
    1278:	48 83 ec 08          	sub    $0x8,%rsp
    127c:	48 83 c4 08          	add    $0x8,%rsp
    1280:	c3                   	ret    
Contents of the .eh_frame section (loaded from sigusr1):


00000000 0000000000000014 00000000 CIE
  Version:               1
  Augmentation:          "zR"
  Code alignment factor: 1
  Data alignment factor: -8
  Return address column: 16
  Augmentation data:     1b
  DW_CFA_def_cfa: r7 (rsp) ofs 8
  DW_CFA_offset: r16 (rip) at cfa-8
  DW_CFA_nop
  DW_CFA_nop

00000018 0000000000000014 0000001c FDE cie=00000000 pc=00000000000010c0..00000000000010e6
  DW_CFA_advance_loc: 4 to 00000000000010c4
  DW_CFA_undefined: r16 (rip)
  DW_CFA_nop
  DW_CFA_nop
  DW_CFA_nop
  DW_CFA_nop

00000030 0000000000000024 00000034 FDE cie=00000000 pc=0000000000001020..0000000000001070
  DW_CFA_def_cfa_offset: 16
  DW_CFA_advance_loc: 6 to 0000000000001026
  DW_CFA_def_cfa_offset: 24
  DW_CFA_advance_loc: 10 to 0000000000001030
  DW_CFA_def_cfa_expression (DW_OP_breg7 (rsp): 8; DW_OP_breg16 (rip): 0; DW_OP_lit15; DW_OP_and; DW_OP_lit10; DW_OP_ge; DW_OP_lit3; DW_OP_shl; DW_OP_plus)
  DW_CFA_nop
  DW_CFA_nop
  DW_CFA_nop
  DW_CFA_nop

00000058 0000000000000014 0000005c FDE cie=00000000 pc=0000000000001070..0000000000001080
  DW_CFA_nop
  DW_CFA_nop
  DW_CFA_nop
  DW_CFA_nop
  DW_CFA_nop
  DW_CFA_nop
  DW_CFA_nop

00000070 0000000000000014 00000074 FDE cie=00000000 pc=0000000000001080..00000000000010c0
  DW_CFA_nop
  DW_CFA_nop
  DW_CFA_nop
  DW_CFA_nop
  DW_CFA_nop
  DW_CFA_nop
  DW_CFA_nop

00000088 000000000000001c 0000008c FDE cie=00000000 pc=00000000000011a9..00000000000011c8
  DW_CFA_advance_loc: 5 to 00000000000011ae
  DW_CFA_def_cfa_offset: 16
  DW_CFA_offset: r6 (rbp) at cfa-16
  DW_CFA_advance_loc: 3 to 00000000000011b1
  DW_CFA_def_cfa_register: r6 (rbp)
  DW_CFA_advance_loc: 22 to 00000000000011c7
  DW_CFA_def_cfa: r7 (rsp) ofs 8
  DW_CFA_nop
  DW_CFA_nop
  DW_CFA_nop

000000a8 000000000000001c 000000ac FDE cie=00000000 pc=00000000000011c8..0000000000001274
  DW_CFA_advance_loc: 5 to 00000000000011cd
  DW_CFA_def_cfa_offset: 16
  DW_CFA_offset: r6 (rbp) at cfa-16
  DW_CFA_advance_loc: 3 to 00000000000011d0
  DW_CFA_def_cfa_register: r6 (rbp)
  DW_CFA_advance_loc1: 163 to 0000000000001273
  DW_CFA_def_cfa: r7 (rsp) ofs 8
  DW_CFA_nop
  DW_CFA_nop

000000c8 ZERO terminator


